target datalayout = "e-m:e-p270:32:32-p271:32:32-p272:64:64-i64:64-i128:128-f80:128-n8:16:32:64-S128"
target triple = "x86_64-pc-linux-gnu"

%struct._object = type { %union.anon, ptr }
%union.anon = type { i64 }
%struct.PyMutex = type { i8 }
%struct._queues = type { ptr, ptr, i64, i64 }
%struct.globals = type { %struct.PyMutex, i32, %struct._queues }
%struct.queue_id_and_info = type { i64, i32, i32 }
%struct._queue = type { i64, ptr, i32, %struct._queueitems, %struct.anon.0 }
%struct._queueitems = type { i64, i64, ptr, ptr }
%struct.anon.0 = type { i32, i32 }
%struct._queueref = type { ptr, i64, i64, ptr }
%struct.anon = type { i32, i32 }
%struct.PyVarObject = type { %struct._object, i64 }
%struct.PyListObject = type { %struct.PyVarObject, ptr, i64 }

@_globals = internal global { %struct.PyMutex, [3 x i8], i32, %struct._queues } zeroinitializer, align 8
@.str.35 = private unnamed_addr constant [4 x i8] c"Lii\00", align 1

; Function Attrs: alwaysinline nounwind uwtable
define internal i32 @_Py_IsImmortal(ptr noundef %0) #6 {
  %2 = alloca ptr, align 8
  store ptr %0, ptr %2, align 8, !tbaa !3
  %3 = load ptr, ptr %2, align 8, !tbaa !3
  %4 = getelementptr inbounds nuw %struct._object, ptr %3, i32 0, i32 0
  %5 = getelementptr inbounds nuw %struct.anon, ptr %4, i32 0, i32 0
  %6 = load i32, ptr %5, align 8, !tbaa !73
  %7 = icmp slt i32 %6, 0
  %8 = zext i1 %7 to i32
  ret i32 %8
}

; Function Attrs: inlinehint nounwind uwtable
define internal void @PyList_SET_ITEM(ptr noundef %0, i64 noundef %1, ptr noundef %2) #5 {
  %4 = alloca ptr, align 8
  %5 = alloca i64, align 8
  %6 = alloca ptr, align 8
  %7 = alloca ptr, align 8
  store ptr %0, ptr %4, align 8, !tbaa !3
  store i64 %1, ptr %5, align 8, !tbaa !11
  store ptr %2, ptr %6, align 8, !tbaa !3
  call void @llvm.lifetime.start.p0(i64 8, ptr %7) #8
  %8 = load ptr, ptr %4, align 8, !tbaa !3
  store ptr %8, ptr %7, align 8, !tbaa !8
  %9 = load ptr, ptr %6, align 8, !tbaa !3
  %10 = load ptr, ptr %7, align 8, !tbaa !8
  %11 = getelementptr inbounds nuw %struct.PyListObject, ptr %10, i32 0, i32 1
  %12 = load ptr, ptr %11, align 8, !tbaa !96
  %13 = load i64, ptr %5, align 8, !tbaa !11
  %14 = getelementptr ptr, ptr %12, i64 %13
  store ptr %9, ptr %14, align 8, !tbaa !3
  call void @llvm.lifetime.end.p0(i64 8, ptr %7) #8
  ret void
}

; Function Attrs: alwaysinline nounwind uwtable
define internal void @Py_DECREF(ptr noundef %0) #6 {
  %2 = alloca ptr, align 8
  store ptr %0, ptr %2, align 8, !tbaa !3
  %3 = load ptr, ptr %2, align 8, !tbaa !3
  %4 = call i32 @_Py_IsImmortal(ptr noundef %3)
  %5 = icmp ne i32 %4, 0
  br i1 %5, label %6, label %7

6:                                                ; preds = %1
  br label %16

7:                                                ; preds = %1
  %8 = load ptr, ptr %2, align 8, !tbaa !3
  %9 = getelementptr inbounds nuw %struct._object, ptr %8, i32 0, i32 0
  %10 = getelementptr inbounds nuw %struct.anon, ptr %9, i32 0, i32 0
  %11 = load i32, ptr %10, align 8, !tbaa !73
  %12 = add i32 %11, -1
  store i32 %12, ptr %10, align 8, !tbaa !73
  %13 = icmp eq i32 %12, 0
  br i1 %13, label %14, label %16

14:                                               ; preds = %7
  %15 = load ptr, ptr %2, align 8, !tbaa !3
  call void @_Py_Dealloc(ptr noundef %15)
  br label %16

16:                                               ; preds = %6, %14, %7
  ret void
}

; Function Attrs: nounwind uwtable
define internal ptr @_queues_list_all(ptr noundef %0, ptr noundef %1) #0 {
  %3 = alloca ptr, align 8
  %4 = alloca ptr, align 8
  %5 = alloca ptr, align 8
  %6 = alloca ptr, align 8
  %7 = alloca ptr, align 8
  %8 = alloca i64, align 8
  store ptr %0, ptr %3, align 8, !tbaa !39
  store ptr %1, ptr %4, align 8, !tbaa !93
  call void @llvm.lifetime.start.p0(i64 8, ptr %5) #8
  store ptr null, ptr %5, align 8, !tbaa !16
  %9 = load ptr, ptr %3, align 8, !tbaa !39
  %10 = getelementptr inbounds nuw %struct._queues, ptr %9, i32 0, i32 0
  %11 = load ptr, ptr %10, align 8, !tbaa !49
  %12 = call i32 @PyThread_acquire_lock(ptr noundef %11, i32 noundef 1)
  call void @llvm.lifetime.start.p0(i64 8, ptr %6) #8
  %13 = load ptr, ptr %3, align 8, !tbaa !39
  %14 = getelementptr inbounds nuw %struct._queues, ptr %13, i32 0, i32 2
  %15 = load i64, ptr %14, align 8, !tbaa !58
  %16 = icmp ugt i64 %15, 576460752303423487
  br i1 %16, label %17, label %18

17:                                               ; preds = %2
  br label %24

18:                                               ; preds = %2
  %19 = load ptr, ptr %3, align 8, !tbaa !39
  %20 = getelementptr inbounds nuw %struct._queues, ptr %19, i32 0, i32 2
  %21 = load i64, ptr %20, align 8, !tbaa !58
  %22 = mul i64 %21, 16
  %23 = call ptr @PyMem_Malloc(i64 noundef %22)
  br label %24

24:                                               ; preds = %18, %17
  %25 = phi ptr [ null, %17 ], [ %23, %18 ]
  store ptr %25, ptr %6, align 8, !tbaa !16
  %26 = load ptr, ptr %6, align 8, !tbaa !16
  %27 = icmp eq ptr %26, null
  br i1 %27, label %28, label %29

28:                                               ; preds = %24
  br label %77

29:                                               ; preds = %24
  %30 = load ptr, ptr %3, align 8, !tbaa !39
  %31 = getelementptr inbounds nuw %struct._queues, ptr %30, i32 0, i32 1
  %32 = load ptr, ptr %31, align 8, !tbaa !57
  store ptr %32, ptr %7, align 8, !tbaa !50
  call void @llvm.lifetime.start.p0(i64 8, ptr %8) #8
  store i64 0, ptr %8, align 8, !tbaa !11
  br label %33

33:                                               ; preds = %65, %29
  %34 = load ptr, ptr %7, align 8, !tbaa !50
  %35 = icmp ne ptr %34, null
  br i1 %35, label %37, label %36

36:                                               ; preds = %33
  call void @llvm.lifetime.end.p0(i64 8, ptr %8) #8
  br label %71

37:                                               ; preds = %33
  %38 = load ptr, ptr %7, align 8, !tbaa !50
  %39 = getelementptr inbounds nuw %struct._queueref, ptr %38, i32 0, i32 1
  %40 = load i64, ptr %39, align 8, !tbaa !53
  %41 = load ptr, ptr %6, align 8, !tbaa !16
  %42 = load i64, ptr %8, align 8, !tbaa !11
  %43 = getelementptr %struct.queue_id_and_info, ptr %41, i64 %42
  %44 = getelementptr inbounds nuw %struct.queue_id_and_info, ptr %43, i32 0, i32 0
  store i64 %40, ptr %44, align 8, !tbaa !18
  %45 = load ptr, ptr %7, align 8, !tbaa !50
  %46 = getelementptr inbounds nuw %struct._queueref, ptr %45, i32 0, i32 3
  %47 = load ptr, ptr %46, align 8, !tbaa !55
  %48 = getelementptr inbounds nuw %struct._queue, ptr %47, i32 0, i32 4
  %49 = getelementptr inbounds nuw %struct.anon.0, ptr %48, i32 0, i32 0
  %50 = load i32, ptr %49, align 8, !tbaa !28
  %51 = load ptr, ptr %6, align 8, !tbaa !16
  %52 = load i64, ptr %8, align 8, !tbaa !11
  %53 = getelementptr %struct.queue_id_and_info, ptr %51, i64 %52
  %54 = getelementptr inbounds nuw %struct.queue_id_and_info, ptr %53, i32 0, i32 1
  store i32 %50, ptr %54, align 8, !tbaa !20
  %55 = load ptr, ptr %7, align 8, !tbaa !50
  %56 = getelementptr inbounds nuw %struct._queueref, ptr %55, i32 0, i32 3
  %57 = load ptr, ptr %56, align 8, !tbaa !55
  %58 = getelementptr inbounds nuw %struct._queue, ptr %57, i32 0, i32 4
  %59 = getelementptr inbounds nuw %struct.anon.0, ptr %58, i32 0, i32 1
  %60 = load i32, ptr %59, align 4, !tbaa !33
  %61 = load ptr, ptr %6, align 8, !tbaa !16
  %62 = load i64, ptr %8, align 8, !tbaa !11
  %63 = getelementptr %struct.queue_id_and_info, ptr %61, i64 %62
  %64 = getelementptr inbounds nuw %struct.queue_id_and_info, ptr %63, i32 0, i32 2
  store i32 %60, ptr %64, align 4, !tbaa !21
  br label %65

65:                                               ; preds = %37
  %66 = load ptr, ptr %7, align 8, !tbaa !50
  %67 = getelementptr inbounds nuw %struct._queueref, ptr %66, i32 0, i32 0
  %68 = load ptr, ptr %67, align 8, !tbaa !51
  store ptr %68, ptr %7, align 8, !tbaa !50
  %69 = load i64, ptr %8, align 8, !tbaa !11
  %70 = add i64 %69, 1
  store i64 %70, ptr %8, align 8, !tbaa !11
  br label %33, !llvm.loop !95

71:                                               ; preds = %36
  %72 = load ptr, ptr %3, align 8, !tbaa !39
  %73 = getelementptr inbounds nuw %struct._queues, ptr %72, i32 0, i32 2
  %74 = load i64, ptr %73, align 8, !tbaa !58
  %75 = load ptr, ptr %4, align 8, !tbaa !93
  store i64 %74, ptr %75, align 8, !tbaa !11
  %76 = load ptr, ptr %6, align 8, !tbaa !16
  store ptr %76, ptr %5, align 8, !tbaa !16
  br label %77

77:                                               ; preds = %71, %28
  %78 = load ptr, ptr %3, align 8, !tbaa !39
  %79 = getelementptr inbounds nuw %struct._queues, ptr %78, i32 0, i32 0
  %80 = load ptr, ptr %79, align 8, !tbaa !49
  call void @PyThread_release_lock(ptr noundef %80)
  %81 = load ptr, ptr %5, align 8, !tbaa !16
  call void @llvm.lifetime.end.p0(i64 8, ptr %6) #8
  call void @llvm.lifetime.end.p0(i64 8, ptr %5) #8
  ret ptr %81
}

; Function Attrs: nounwind uwtable
define internal ptr @queuesmod_list_all(ptr noundef %0, ptr noundef %1) #0 {
  %3 = alloca ptr, align 8
  %4 = alloca ptr, align 8
  %5 = alloca ptr, align 8
  %6 = alloca i64, align 8
  %7 = alloca ptr, align 8
  %8 = alloca i32, align 4
  %9 = alloca ptr, align 8
  %10 = alloca ptr, align 8
  %11 = alloca i64, align 8
  %12 = alloca ptr, align 8
  %13 = alloca ptr, align 8
  %14 = alloca ptr, align 8
  store ptr %0, ptr %4, align 8, !tbaa !3
  store ptr %1, ptr %5, align 8, !tbaa !3
  call void @llvm.lifetime.start.p0(i64 8, ptr %6) #8
  store i64 0, ptr %6, align 8, !tbaa !11
  call void @llvm.lifetime.start.p0(i64 8, ptr %7) #8
  %15 = call ptr @_queues_list_all(ptr noundef getelementptr inbounds nuw (%struct.globals, ptr @_globals, i32 0, i32 2), ptr noundef %6)
  store ptr %15, ptr %7, align 8, !tbaa !16
  %16 = load ptr, ptr %7, align 8, !tbaa !16
  %17 = icmp eq ptr %16, null
  br i1 %17, label %18, label %27

18:                                               ; preds = %2
  %19 = call ptr @PyErr_Occurred()
  %20 = icmp ne ptr %19, null
  br i1 %20, label %26, label %21

21:                                               ; preds = %18
  %22 = load i64, ptr %6, align 8, !tbaa !11
  %23 = icmp eq i64 %22, 0
  br i1 %23, label %24, label %26

24:                                               ; preds = %21
  %25 = call ptr @PyList_New(i64 noundef 0)
  store ptr %25, ptr %3, align 8
  store i32 1, ptr %8, align 4
  br label %78

26:                                               ; preds = %21, %18
  store ptr null, ptr %3, align 8
  store i32 1, ptr %8, align 4
  br label %78

27:                                               ; preds = %2
  call void @llvm.lifetime.start.p0(i64 8, ptr %9) #8
  %28 = load i64, ptr %6, align 8, !tbaa !11
  %29 = call ptr @PyList_New(i64 noundef %28)
  store ptr %29, ptr %9, align 8, !tbaa !3
  %30 = load ptr, ptr %9, align 8, !tbaa !3
  %31 = icmp eq ptr %30, null
  br i1 %31, label %32, label %33

32:                                               ; preds = %27
  br label %75

33:                                               ; preds = %27
  %34 = load ptr, ptr %7, align 8, !tbaa !16
  store ptr %34, ptr %10, align 8, !tbaa !16
  call void @llvm.lifetime.start.p0(i64 8, ptr %11) #8
  store i64 0, ptr %11, align 8, !tbaa !11
  br label %35

35:                                               ; preds = %68, %33
  %36 = load i64, ptr %11, align 8, !tbaa !11
  %37 = load i64, ptr %6, align 8, !tbaa !11
  %38 = icmp slt i64 %36, %37
  br i1 %38, label %40, label %39

39:                                               ; preds = %35
  store i32 3, ptr %8, align 4
  br label %73

40:                                               ; preds = %35
  call void @llvm.lifetime.start.p0(i64 8, ptr %12) #8
  %41 = load ptr, ptr %10, align 8, !tbaa !16
  %42 = getelementptr inbounds nuw %struct.queue_id_and_info, ptr %41, i32 0, i32 0
  %43 = load i64, ptr %42, align 8, !tbaa !18
  %44 = load ptr, ptr %10, align 8, !tbaa !16
  %45 = getelementptr inbounds nuw %struct.queue_id_and_info, ptr %44, i32 0, i32 1
  %46 = load i32, ptr %45, align 8, !tbaa !20
  %47 = load ptr, ptr %10, align 8, !tbaa !16
  %48 = getelementptr inbounds nuw %struct.queue_id_and_info, ptr %47, i32 0, i32 2
  %49 = load i32, ptr %48, align 4, !tbaa !21
  %50 = call ptr (ptr, ...) @Py_BuildValue(ptr noundef @.str.35, i64 noundef %43, i32 noundef %46, i32 noundef %49)
  store ptr %50, ptr %12, align 8, !tbaa !3
  %51 = load ptr, ptr %12, align 8, !tbaa !3
  %52 = icmp eq ptr %51, null
  br i1 %52, label %53, label %61

53:                                               ; preds = %40
  br label %54

54:                                               ; preds = %53
  call void @llvm.lifetime.start.p0(i64 8, ptr %13) #8
  store ptr %9, ptr %13, align 8, !tbaa !22
  call void @llvm.lifetime.start.p0(i64 8, ptr %14) #8
  %55 = load ptr, ptr %13, align 8, !tbaa !22
  %56 = load ptr, ptr %55, align 8, !tbaa !3
  store ptr %56, ptr %14, align 8, !tbaa !3
  %57 = load ptr, ptr %13, align 8, !tbaa !22
  store ptr null, ptr %57, align 8, !tbaa !3
  %58 = load ptr, ptr %14, align 8, !tbaa !3
  call void @Py_DECREF(ptr noundef %58)
  call void @llvm.lifetime.end.p0(i64 8, ptr %14) #8
  call void @llvm.lifetime.end.p0(i64 8, ptr %13) #8
  br label %59

59:                                               ; preds = %54
  br label %60

60:                                               ; preds = %59
  store i32 3, ptr %8, align 4
  br label %65

61:                                               ; preds = %40
  %62 = load ptr, ptr %9, align 8, !tbaa !3
  %63 = load i64, ptr %11, align 8, !tbaa !11
  %64 = load ptr, ptr %12, align 8, !tbaa !3
  call void @PyList_SET_ITEM(ptr noundef %62, i64 noundef %63, ptr noundef %64)
  store i32 0, ptr %8, align 4
  br label %65

65:                                               ; preds = %61, %60
  call void @llvm.lifetime.end.p0(i64 8, ptr %12) #8
  %66 = load i32, ptr %8, align 4
  switch i32 %66, label %73 [
    i32 0, label %67
  ]

67:                                               ; preds = %65
  br label %68

68:                                               ; preds = %67
  %69 = load ptr, ptr %10, align 8, !tbaa !16
  %70 = getelementptr %struct.queue_id_and_info, ptr %69, i32 1
  store ptr %70, ptr %10, align 8, !tbaa !16
  %71 = load i64, ptr %11, align 8, !tbaa !11
  %72 = add i64 %71, 1
  store i64 %72, ptr %11, align 8, !tbaa !11
  br label %35, !llvm.loop !24

73:                                               ; preds = %65, %39
  call void @llvm.lifetime.end.p0(i64 8, ptr %11) #8
  br label %74

74:                                               ; preds = %73
  br label %75

75:                                               ; preds = %74, %32
  %76 = load ptr, ptr %7, align 8, !tbaa !16
  call void @PyMem_Free(ptr noundef %76)
  %77 = load ptr, ptr %9, align 8, !tbaa !3
  store ptr %77, ptr %3, align 8
  store i32 1, ptr %8, align 4
  call void @llvm.lifetime.end.p0(i64 8, ptr %9) #8
  br label %78

78:                                               ; preds = %75, %26, %24
  call void @llvm.lifetime.end.p0(i64 8, ptr %7) #8
  call void @llvm.lifetime.end.p0(i64 8, ptr %6) #8
  %79 = load ptr, ptr %3, align 8
  ret ptr %79
}