; Function Attrs: nounwind uwtable
define internal ptr @queuesmod_list_all(ptr readnone captures(none) %0, ptr readnone captures(none) %1) #0 {
  %3 = load ptr, ptr getelementptr inbounds nuw (i8, ptr @_globals, i64 8), align 8, !tbaa !20
  %4 = tail call i32 @PyThread_acquire_lock(ptr noundef %3, i32 noundef 1) #6
  %5 = load i64, ptr getelementptr inbounds nuw (i8, ptr @_globals, i64 24), align 8, !tbaa !42
  %6 = icmp ugt i64 %5, 576460752303423487
  br i1 %6, label %23, label %7

7:                                                ; preds = %2
  %8 = shl nuw nsw i64 %5, 4
  %9 = tail call ptr @PyMem_Malloc(i64 noundef %8) #6
  %10 = icmp eq ptr %9, null
  br i1 %10, label %23, label %.preheader.i

.preheader.i:                                     ; preds = %7
  %.0211.i = load ptr, ptr getelementptr inbounds nuw (i8, ptr @_globals, i64 16), align 8, !tbaa !36
  %.not2.i = icmp eq ptr %.0211.i, null
  br i1 %.not2.i, label %.loopexit, label %.lr.ph.i

.lr.ph.i:                                         ; preds = %.preheader.i, %.lr.ph.i
  %.0214.i = phi ptr [ %.021.i, %.lr.ph.i ], [ %.0211.i, %.preheader.i ]
  %.03.i = phi i64 [ %22, %.lr.ph.i ], [ 0, %.preheader.i ]
  %11 = getelementptr inbounds nuw i8, ptr %.0214.i, i64 8
  %12 = load i64, ptr %11, align 8, !tbaa !46
  %13 = getelementptr %struct.queue_id_and_info, ptr %9, i64 %.03.i
  store i64 %12, ptr %13, align 8, !tbaa !47
  %14 = getelementptr inbounds nuw i8, ptr %.0214.i, i64 24
  %15 = load ptr, ptr %14, align 8, !tbaa !49
  %16 = getelementptr inbounds nuw i8, ptr %15, i64 56
  %17 = load i32, ptr %16, align 8, !tbaa !50
  %18 = getelementptr inbounds nuw i8, ptr %13, i64 8
  store i32 %17, ptr %18, align 8, !tbaa !51
  %19 = getelementptr inbounds nuw i8, ptr %15, i64 60
  %20 = load i32, ptr %19, align 4, !tbaa !52
  %21 = getelementptr inbounds nuw i8, ptr %13, i64 12
  store i32 %20, ptr %21, align 4, !tbaa !53
  %22 = add i64 %.03.i, 1
  %.021.i = load ptr, ptr %.0214.i, align 8, !tbaa !36
  %.not.i28 = icmp eq ptr %.021.i, null
  br i1 %.not.i28, label %.loopexit, label %.lr.ph.i, !llvm.loop !54

23:                                               ; preds = %7, %2
  %24 = load ptr, ptr getelementptr inbounds nuw (i8, ptr @_globals, i64 8), align 8, !tbaa !20
  tail call void @PyThread_release_lock(ptr noundef %24) #6
  %25 = tail call ptr @PyErr_Occurred() #6
  %26 = icmp eq ptr %25, null
  br i1 %26, label %27, label %52

27:                                               ; preds = %23
  %28 = tail call ptr @PyList_New(i64 noundef 0) #6
  br label %52

.loopexit:                                        ; preds = %.lr.ph.i, %.preheader.i
  %29 = load i64, ptr getelementptr inbounds nuw (i8, ptr @_globals, i64 24), align 8, !tbaa !42
  %30 = load ptr, ptr getelementptr inbounds nuw (i8, ptr @_globals, i64 8), align 8, !tbaa !20
  tail call void @PyThread_release_lock(ptr noundef %30) #6
  %31 = tail call ptr @PyList_New(i64 noundef %29) #6
  %32 = icmp eq ptr %31, null
  br i1 %32, label %Py_DECREF.exit.thread, label %.preheader

.preheader:                                       ; preds = %.loopexit
  %33 = icmp sgt i64 %29, 0
  br i1 %33, label %.lr.ph, label %Py_DECREF.exit.thread

.lr.ph:                                           ; preds = %.preheader
  %34 = getelementptr i8, ptr %31, i64 24
  br label %35

35:                                               ; preds = %.lr.ph, %48
  %.01837 = phi ptr [ %9, %.lr.ph ], [ %50, %48 ]
  %.01936 = phi i64 [ 0, %.lr.ph ], [ %51, %48 ]
  %36 = load i64, ptr %.01837, align 8, !tbaa !47
  %37 = getelementptr inbounds nuw i8, ptr %.01837, i64 8
  %38 = load i32, ptr %37, align 8, !tbaa !51
  %39 = getelementptr inbounds nuw i8, ptr %.01837, i64 12
  %40 = load i32, ptr %39, align 4, !tbaa !53
  %41 = tail call ptr (ptr, ...) @Py_BuildValue(ptr noundef nonnull @.str.35, i64 noundef %36, i32 noundef %38, i32 noundef %40) #6
  %.not = icmp eq ptr %41, null
  br i1 %.not, label %42, label %48

42:                                               ; preds = %35
  %43 = load i32, ptr %31, align 8, !tbaa !55
  %.not.i = icmp sgt i32 %43, -1
  br i1 %.not.i, label %44, label %Py_DECREF.exit.thread

44:                                               ; preds = %42
  %45 = add nsw i32 %43, -1
  store i32 %45, ptr %31, align 8, !tbaa !55
  %46 = icmp eq i32 %45, 0
  br i1 %46, label %47, label %Py_DECREF.exit.thread

47:                                               ; preds = %44
  tail call void @_Py_Dealloc(ptr noundef nonnull %31) #6
  br label %Py_DECREF.exit.thread

48:                                               ; preds = %35
  %.1.val = load ptr, ptr %34, align 8, !tbaa !56
  %49 = getelementptr ptr, ptr %.1.val, i64 %.01936
  store ptr %41, ptr %49, align 8, !tbaa !16
  %50 = getelementptr i8, ptr %.01837, i64 16
  %51 = add nuw nsw i64 %.01936, 1
  %exitcond.not = icmp eq i64 %51, %29
  br i1 %exitcond.not, label %Py_DECREF.exit.thread, label %35, !llvm.loop !61

Py_DECREF.exit.thread:                            ; preds = %48, %.preheader, %42, %44, %47, %.loopexit
  %.023 = phi ptr [ null, %.loopexit ], [ null, %47 ], [ null, %44 ], [ null, %42 ], [ %31, %.preheader ], [ %31, %48 ]
  tail call void @PyMem_Free(ptr noundef nonnull %9) #6
  br label %52

52:                                               ; preds = %23, %Py_DECREF.exit.thread, %27
  %.0 = phi ptr [ %28, %27 ], [ %.023, %Py_DECREF.exit.thread ], [ null, %23 ]
  ret ptr %.0
}